target datalayout = "e-m:e-p270:32:32-p271:32:32-p272:64:64-i64:64-i128:128-f80:128-n8:16:32:64-S128"
target triple = "x86_64-pc-linux-gnu"

@hf_iscsi_Padding = internal global i32 0, align 4

; Function Attrs: null_pointer_is_valid sspstrong uwtable
define internal i32 @handleDataSegment(ptr noundef %0, ptr noundef %1, ptr noundef %2, i32 noundef %3, i32 noundef %4, i32 noundef %5, i32 noundef %6) #0 {
  %8 = alloca ptr, align 8
  %9 = alloca ptr, align 8
  %10 = alloca ptr, align 8
  %11 = alloca i32, align 4
  %12 = alloca i32, align 4
  %13 = alloca i32, align 4
  %14 = alloca i32, align 4
  %15 = alloca i32, align 4
  %16 = alloca i32, align 4
  %17 = alloca i32, align 4
  store ptr %0, ptr %8, align 8
  store ptr %1, ptr %9, align 8
  store ptr %2, ptr %10, align 8
  store i32 %3, ptr %11, align 4
  store i32 %4, ptr %12, align 4
  store i32 %5, ptr %13, align 4
  store i32 %6, ptr %14, align 4
  %18 = load i32, ptr %13, align 4
  %19 = load i32, ptr %11, align 4
  %20 = icmp ugt i32 %18, %19
  br i1 %20, label %21, label %86

21:                                               ; preds = %7
  call void @llvm.lifetime.start.p0(i64 4, ptr %15) #11
  %22 = load i32, ptr %11, align 4
  store i32 %22, ptr %15, align 4
  call void @llvm.lifetime.start.p0(i64 4, ptr %16) #11
  %23 = load i32, ptr %12, align 4
  %24 = load i32, ptr %13, align 4
  %25 = load i32, ptr %11, align 4
  %26 = sub i32 %24, %25
  %27 = icmp ult i32 %23, %26
  br i1 %27, label %28, label %30

28:                                               ; preds = %21
  %29 = load i32, ptr %12, align 4
  br label %34

30:                                               ; preds = %21
  %31 = load i32, ptr %13, align 4
  %32 = load i32, ptr %11, align 4
  %33 = sub i32 %31, %32
  br label %34

34:                                               ; preds = %30, %28
  %35 = phi i32 [ %29, %28 ], [ %33, %30 ]
  store i32 %35, ptr %16, align 4
  %36 = load i32, ptr %16, align 4
  %37 = icmp sgt i32 %36, 0
  br i1 %37, label %38, label %48

38:                                               ; preds = %34
  %39 = load ptr, ptr %9, align 8
  %40 = load i32, ptr %14, align 4
  %41 = load ptr, ptr %10, align 8
  %42 = load i32, ptr %11, align 4
  %43 = load i32, ptr %16, align 4
  %44 = call ptr @proto_tree_add_item(ptr noundef %39, i32 noundef %40, ptr noundef %41, i32 noundef %42, i32 noundef %43, i32 noundef 0)
  %45 = load i32, ptr %16, align 4
  %46 = load i32, ptr %11, align 4
  %47 = add i32 %46, %45
  store i32 %47, ptr %11, align 4
  br label %48

48:                                               ; preds = %38, %34
  %49 = load i32, ptr %11, align 4
  %50 = load i32, ptr %13, align 4
  %51 = icmp ult i32 %49, %50
  br i1 %51, label %52, label %69

52:                                               ; preds = %48
  %53 = load i32, ptr %11, align 4
  %54 = and i32 %53, 3
  %55 = icmp ne i32 %54, 0
  br i1 %55, label %56, label %69

56:                                               ; preds = %52
  call void @llvm.lifetime.start.p0(i64 4, ptr %17) #11
  %57 = load i32, ptr %11, align 4
  %58 = and i32 %57, 3
  %59 = sub i32 4, %58
  store i32 %59, ptr %17, align 4
  %60 = load ptr, ptr %9, align 8
  %61 = load i32, ptr @hf_iscsi_Padding, align 4
  %62 = load ptr, ptr %10, align 8
  %63 = load i32, ptr %11, align 4
  %64 = load i32, ptr %17, align 4
  %65 = call ptr @proto_tree_add_item(ptr noundef %60, i32 noundef %61, ptr noundef %62, i32 noundef %63, i32 noundef %64, i32 noundef 0)
  %66 = load i32, ptr %17, align 4
  %67 = load i32, ptr %11, align 4
  %68 = add i32 %67, %66
  store i32 %68, ptr %11, align 4
  call void @llvm.lifetime.end.p0(i64 4, ptr %17) #11
  br label %69

69:                                               ; preds = %56, %52, %48
  %70 = load i32, ptr %12, align 4
  %71 = icmp ugt i32 %70, 0
  br i1 %71, label %72, label %85

72:                                               ; preds = %69
  %73 = load i32, ptr %11, align 4
  %74 = load i32, ptr %13, align 4
  %75 = icmp ult i32 %73, %74
  br i1 %75, label %76, label %85

76:                                               ; preds = %72
  %77 = load ptr, ptr %8, align 8
  %78 = load ptr, ptr %9, align 8
  %79 = load ptr, ptr %10, align 8
  %80 = load i32, ptr %15, align 4
  %81 = load i32, ptr %11, align 4
  %82 = load i32, ptr %15, align 4
  %83 = sub i32 %81, %82
  %84 = call i32 @handleDataDigest(ptr noundef %77, ptr noundef %78, ptr noundef %79, i32 noundef %80, i32 noundef %83)
  store i32 %84, ptr %11, align 4
  br label %85

85:                                               ; preds = %76, %72, %69
  call void @llvm.lifetime.end.p0(i64 4, ptr %16) #11
  call void @llvm.lifetime.end.p0(i64 4, ptr %15) #11
  br label %86

86:                                               ; preds = %85, %7
  %87 = load i32, ptr %11, align 4
  ret i32 %87
}