; Function Attrs: null_pointer_is_valid sspstrong uwtable
define internal fastcc i32 @handleDataSegment(ptr noundef readonly captures(none) %0, ptr noundef %1, ptr noundef %2, i32 noundef %3, i32 noundef range(i32 0, 16777216) %4, i32 noundef %5, i32 noundef %6) unnamed_addr #0 {
  %8 = icmp ugt i32 %5, %3
  br i1 %8, label %9, label %29

9:                                                ; preds = %7
  %10 = sub nuw i32 %5, %3
  %11 = tail call i32 @llvm.umin.i32(i32 %4, i32 %10)
  %.not = icmp eq i32 %11, 0
  br i1 %.not, label %15, label %12

12:                                               ; preds = %9
  %13 = tail call ptr @proto_tree_add_item(ptr noundef %1, i32 noundef %6, ptr noundef %2, i32 noundef %3, i32 noundef %11, i32 noundef 0)
  %14 = add i32 %11, %3
  br label %15

15:                                               ; preds = %12, %9
  %.1 = phi i32 [ %14, %12 ], [ %3, %9 ]
  %16 = icmp ult i32 %.1, %5
  br i1 %16, label %17, label %24

17:                                               ; preds = %15
  %18 = and i32 %.1, 3
  %.not41 = icmp eq i32 %18, 0
  br i1 %.not41, label %24, label %19

19:                                               ; preds = %17
  %20 = sub nuw nsw i32 4, %18
  %21 = load i32, ptr @hf_iscsi_Padding, align 4
  %22 = tail call ptr @proto_tree_add_item(ptr noundef %1, i32 noundef %21, ptr noundef %2, i32 noundef %.1, i32 noundef %20, i32 noundef 0)
  %23 = add i32 %20, %.1
  br label %24

24:                                               ; preds = %19, %17, %15
  %.2 = phi i32 [ %23, %19 ], [ %.1, %17 ], [ %.1, %15 ]
  %.not42 = icmp ne i32 %4, 0
  %25 = icmp ult i32 %.2, %5
  %or.cond = and i1 %.not42, %25
  br i1 %or.cond, label %26, label %29

26:                                               ; preds = %24
  %27 = sub i32 %.2, %3
  %28 = tail call fastcc i32 @handleDataDigest(ptr noundef %0, ptr noundef %1, ptr noundef %2, i32 noundef %3, i32 noundef %27)
  br label %29

29:                                               ; preds = %24, %26, %7
  %.0 = phi i32 [ %3, %7 ], [ %28, %26 ], [ %.2, %24 ]
  ret i32 %.0
}